target datalayout = "e-m:e-p270:32:32-p271:32:32-p272:64:64-i64:64-i128:128-f80:128-n8:16:32:64-S128"
target triple = "x86_64-pc-linux-gnu"

%"class.tinyxml2::StrPair" = type { i32, ptr, ptr }
%"class.tinyxml2::XMLNode" = type { ptr, ptr, ptr, %"class.tinyxml2::StrPair", i32, ptr, ptr, ptr, ptr, ptr, ptr }
%"class.tinyxml2::XMLElement" = type { %"class.tinyxml2::XMLNode", i32, ptr }
%"class.tinyxml2::XMLAttribute" = type { ptr, %"class.tinyxml2::StrPair", %"class.tinyxml2::StrPair", i32, ptr, ptr }

; Function Attrs: mustprogress uwtable
define void @_ZN8tinyxml210XMLElement15DeleteAttributeEPNS_12XMLAttributeE(ptr noundef %0) #2 align 2 {
  %2 = alloca ptr, align 8
  %3 = alloca ptr, align 8
  store ptr %0, ptr %2, align 8, !tbaa !140
  %4 = load ptr, ptr %2, align 8, !tbaa !140
  %5 = icmp eq ptr %4, null
  br i1 %5, label %6, label %7

6:                                                ; preds = %1
  br label %20

7:                                                ; preds = %1
  call void @llvm.lifetime.start.p0(i64 8, ptr %3) #18
  %8 = load ptr, ptr %2, align 8, !tbaa !140
  %9 = getelementptr inbounds nuw %"class.tinyxml2::XMLAttribute", ptr %8, i32 0, i32 5
  %10 = load ptr, ptr %9, align 8, !tbaa !145
  store ptr %10, ptr %3, align 8, !tbaa !120
  %11 = load ptr, ptr %2, align 8, !tbaa !140
  %12 = load ptr, ptr %11, align 8, !tbaa !91
  %13 = getelementptr inbounds ptr, ptr %12, i64 0
  %14 = load ptr, ptr %13, align 8
  call void %14(ptr noundef nonnull align 8 dereferenceable(80) %11) #18
  %15 = load ptr, ptr %3, align 8, !tbaa !120
  %16 = load ptr, ptr %2, align 8, !tbaa !140
  %17 = load ptr, ptr %15, align 8, !tbaa !91
  %18 = getelementptr inbounds ptr, ptr %17, i64 4
  %19 = load ptr, ptr %18, align 8
  call void %19(ptr noundef nonnull align 8 dereferenceable(8) %15, ptr noundef %16)
  call void @llvm.lifetime.end.p0(i64 8, ptr %3) #18
  br label %20

20:                                               ; preds = %7, %6
  ret void
}

; Function Attrs: mustprogress nounwind uwtable
define void @_ZN8tinyxml210XMLElementD2Ev(ptr noundef nonnull align 8 dereferenceable(120) %0) unnamed_addr #0 align 2 personality ptr @__gxx_personality_v0 {
  %2 = alloca ptr, align 8
  %3 = alloca ptr, align 8
  store ptr %0, ptr %2, align 8, !tbaa !106
  %4 = load ptr, ptr %2, align 8
  store ptr getelementptr inbounds inrange(-16, 144) ({ [20 x ptr] }, ptr @_ZTVN8tinyxml210XMLElementE, i32 0, i32 0, i32 2), ptr %4, align 8, !tbaa !91
  br label %5

5:                                                ; preds = %16, %1
  %6 = getelementptr inbounds nuw %"class.tinyxml2::XMLElement", ptr %4, i32 0, i32 2
  %7 = load ptr, ptr %6, align 8, !tbaa !141
  %8 = icmp ne ptr %7, null
  br i1 %8, label %9, label %19

9:                                                ; preds = %5
  call void @llvm.lifetime.start.p0(i64 8, ptr %3) #18
  %10 = getelementptr inbounds nuw %"class.tinyxml2::XMLElement", ptr %4, i32 0, i32 2
  %11 = load ptr, ptr %10, align 8, !tbaa !141
  %12 = getelementptr inbounds nuw %"class.tinyxml2::XMLAttribute", ptr %11, i32 0, i32 4
  %13 = load ptr, ptr %12, align 8, !tbaa !142
  store ptr %13, ptr %3, align 8, !tbaa !140
  %14 = getelementptr inbounds nuw %"class.tinyxml2::XMLElement", ptr %4, i32 0, i32 2
  %15 = load ptr, ptr %14, align 8, !tbaa !141
  invoke void @_ZN8tinyxml210XMLElement15DeleteAttributeEPNS_12XMLAttributeE(ptr noundef %15)
          to label %16 unwind label %20

16:                                               ; preds = %9
  %17 = load ptr, ptr %3, align 8, !tbaa !140
  %18 = getelementptr inbounds nuw %"class.tinyxml2::XMLElement", ptr %4, i32 0, i32 2
  store ptr %17, ptr %18, align 8, !tbaa !141
  call void @llvm.lifetime.end.p0(i64 8, ptr %3) #18
  br label %5, !llvm.loop !144

19:                                               ; preds = %5
  call void @_ZN8tinyxml27XMLNodeD2Ev(ptr noundef nonnull align 8 dereferenceable(104) %4) #18
  ret void

20:                                               ; preds = %9
  %21 = landingpad { ptr, i32 }
          catch ptr null
  %22 = extractvalue { ptr, i32 } %21, 0
  call void @__clang_call_terminate(ptr %22) #16
  unreachable
}