; Function Attrs: mustprogress nounwind uwtable
define void @_ZN8tinyxml210XMLElementD2Ev(ptr noundef nonnull align 8 dereferenceable(120) initializes((0, 8)) %0) unnamed_addr #0 align 2 personality ptr @__gxx_personality_v0 {
  store ptr getelementptr inbounds nuw inrange(-16, 144) (i8, ptr @_ZTVN8tinyxml210XMLElementE, i64 16), ptr %0, align 8, !tbaa !63
  %2 = getelementptr inbounds nuw i8, ptr %0, i64 112
  %3 = load ptr, ptr %2, align 8, !tbaa !98
  %.not2 = icmp eq ptr %3, null
  br i1 %.not2, label %._crit_edge, label %.lr.ph

.lr.ph:                                           ; preds = %1, %_ZN8tinyxml210XMLElement15DeleteAttributeEPNS_12XMLAttributeE.exit
  %4 = phi ptr [ %6, %_ZN8tinyxml210XMLElement15DeleteAttributeEPNS_12XMLAttributeE.exit ], [ %3, %1 ]
  %5 = getelementptr inbounds nuw i8, ptr %4, i64 64
  %6 = load ptr, ptr %5, align 8, !tbaa !99
  %7 = getelementptr inbounds nuw i8, ptr %4, i64 72
  %8 = load ptr, ptr %7, align 8, !tbaa !101
  %9 = load ptr, ptr %4, align 8, !tbaa !63
  %10 = load ptr, ptr %9, align 8
  tail call void %10(ptr noundef nonnull align 8 dereferenceable(80) %4) #31
  %11 = load ptr, ptr %8, align 8, !tbaa !63
  %12 = getelementptr inbounds nuw i8, ptr %11, i64 32
  %13 = load ptr, ptr %12, align 8
  invoke void %13(ptr noundef nonnull align 8 dereferenceable(8) %8, ptr noundef nonnull %4)
          to label %_ZN8tinyxml210XMLElement15DeleteAttributeEPNS_12XMLAttributeE.exit unwind label %14

_ZN8tinyxml210XMLElement15DeleteAttributeEPNS_12XMLAttributeE.exit: ; preds = %.lr.ph
  store ptr %6, ptr %2, align 8, !tbaa !98
  %.not = icmp eq ptr %6, null
  br i1 %.not, label %._crit_edge, label %.lr.ph, !llvm.loop !102

._crit_edge:                                      ; preds = %_ZN8tinyxml210XMLElement15DeleteAttributeEPNS_12XMLAttributeE.exit, %1
  tail call void @_ZN8tinyxml27XMLNodeD2Ev(ptr noundef nonnull align 8 dereferenceable(104) %0) #31
  ret void

14:                                               ; preds = %.lr.ph
  %15 = landingpad { ptr, i32 }
          catch ptr null
  %16 = extractvalue { ptr, i32 } %15, 0
  tail call void @__clang_call_terminate(ptr %16) #32
  unreachable
}